target datalayout = "e-m:e-p270:32:32-p271:32:32-p272:64:64-i64:64-i128:128-f80:128-n8:16:32:64-S128"
target triple = "x86_64-pc-linux-gnu"

%struct.redisServer = type { i32, i64, ptr, ptr, ptr, i32, i32, i32, i32, i32, ptr, ptr, ptr, ptr, ptr, i32, i32, i32, i32, i64, i32, i32, i32, i32, ptr, i32, i32, [41 x i8], i32, i64, i32, i32, i32, ptr, ptr, i32, i32, i64, ptr, ptr, ptr, ptr, [2 x i32], i32, i32, i32, i32, i32, i32, [16 x ptr], i32, ptr, ptr, i32, [8 x %struct.connListener], i32, %struct.connListener, ptr, ptr, ptr, ptr, ptr, ptr, ptr, ptr, ptr, ptr, i32, ptr, i32, ptr, [3 x %struct.pause_event], [256 x i8], ptr, i64, i32, i32, [128 x i32], i32, i32, i64, i32, i32, i32, i32, i32, i64, i64, i64, i64, i64, i64, i64, i64, i64, i64, double, i64, i64, i64, i64, i64, i64, i64, i64, i64, i64, i64, i64, i64, i64, i64, i64, i64, i64, i64, i64, i64, double, i64, i64, i64, i64, i64, ptr, i64, i64, i64, %struct.malloc_stats, i64, i64, i64, i64, i64, i64, i64, i64, i64, i64, i64, i64, double, [4 x i64], i64, i64, i64, i64, [128 x i64], [128 x i64], i64, i64, [7 x %struct.anon], i64, i64, i64, i64, i64, i64, [4 x %struct.durationStats], i32, i32, i32, i32, i32, i32, i32, i32, i32, i32, i32, i32, i64, i32, i32, i32, i32, i64, i64, i32, i32, i32, i32, i32, ptr, [3 x %struct.clientBufferLimitsConfig], i32, i32, i32, ptr, i32, i32, i32, i32, i32, i32, ptr, ptr, i32, i32, i64, i64, i64, i64, i64, i32, i32, ptr, i32, i32, i64, i64, i64, i64, i64, i32, i32, i64, i32, i32, i32, i32, i32, i32, i32, i32, ptr, i32, i64, i64, i64, i64, i32, ptr, i32, ptr, i32, i32, i32, i64, i64, i64, i64, i32, i32, i32, i32, i32, i32, ptr, i32, i32, ptr, i32, i32, i32, [2 x i32], i32, %struct.redisOpArray, i32, ptr, i32, ptr, i32, i32, i32, i32, i32, i32, i32, [41 x i8], [41 x i8], i64, i64, i64, i64, i32, i32, ptr, i64, i64, %struct.replDataBuf, i64, i64, i32, i32, i32, i32, i32, i32, i32, i32, i32, i64, ptr, i64, ptr, ptr, ptr, i32, i32, ptr, ptr, i32, i32, i32, i64, i64, i64, i64, ptr, ptr, i32, ptr, i64, i32, i32, i32, i64, i32, i32, i32, i32, ptr, i32, i32, [41 x i8], i64, i32, ptr, i32, i32, i64, i64, i32, i32, i32, i32, i32, i64, [3 x i32], i32, i32, i32, [10 x i32], ptr, ptr, i32, i64, ptr, ptr, i32, i32, i32, i32, i64, i64, i64, i64, i64, i64, i64, i64, i64, i64, i32, i32, i64, i64, i32, i64, i64, i64, i64, i64, ptr, ptr, i32, ptr, i32, i32, i32, i32, i64, i64, ptr, ptr, i32, i32, i32, i32, i32, ptr, ptr, ptr, i32, i32, i32, i32, i32, i32, i32, i64, i32, i32, i64, i32, i32, i32, i32, i32, i32, i32, i64, ptr, ptr, i64, ptr, i32, %struct.aclInfo, i32, i64, i32, i32, i32, %struct.redisTLSContextConfig, ptr, ptr, ptr, ptr, ptr, i64, i32, ptr, i32, i32, i32, i64, i32, ptr }
%struct.connListener = type { [16 x i32], i32, ptr, i32, i32, ptr, ptr }
%struct.pause_event = type { i32, i64 }
%struct.malloc_stats = type { i64, i64, i64, i64, i64, i64, i64, i64, i64, i64, i64 }
%struct.anon = type { i64, i64, [16 x i64], i32 }
%struct.durationStats = type { i64, i64, i64 }
%struct.clientBufferLimitsConfig = type { i64, i64, i64 }
%struct.redisOpArray = type { ptr, i32, i32 }
%struct.replDataBuf = type { ptr, i64, i64, i64, i64 }
%struct.aclInfo = type { i64, i64, i64, i64 }
%struct.redisTLSContextConfig = type { ptr, ptr, ptr, ptr, ptr, ptr, ptr, ptr, ptr, ptr, ptr, ptr, i32, i32, i32, i32 }
%struct.sentinelState = type { [41 x i8], i64, ptr, i32, i32, i64, i64, ptr, ptr, i32, i64, i32, ptr, ptr, i32, i32 }
%struct.sentinelRedisInstance = type { i32, ptr, ptr, i64, ptr, ptr, i64, i64, i64, i64, i64, i64, i64, i64, i64, ptr, i32, i64, i64, ptr, ptr, i32, i32, ptr, ptr, i64, i32, i32, i64, ptr, ptr, i32, i32, i64, ptr, i64, i64, i32, i64, i64, i64, i64, ptr, ptr, ptr, ptr }
%struct.sentinelAddr = type { ptr, ptr, i32 }
%struct.instanceLink = type { i32, i32, i32, ptr, ptr, i64, i64, i64, i64, i64, i64, i64, i64 }
%struct.redisAsyncContext = type { %struct.redisContext, i32, ptr, ptr, ptr, %struct.anon.2, ptr, ptr, ptr, %struct.redisCallbackList, ptr, i64, %struct.anon.3, ptr }
%struct.redisContext = type { ptr, i32, [128 x i8], i32, i32, ptr, ptr, i32, ptr, ptr, %struct.anon.0, %struct.anon.1, ptr, i64, ptr, ptr, ptr, ptr }
%struct.anon.0 = type { ptr, ptr, i32 }
%struct.anon.1 = type { ptr }
%struct.anon.2 = type { ptr, ptr, ptr, ptr, ptr, ptr, ptr }
%struct.redisCallbackList = type { ptr, ptr }
%struct.anon.3 = type { %struct.redisCallbackList, ptr, ptr, i32 }

@server = external global %struct.redisServer, align 8
@sentinel = dso_local global %struct.sentinelState zeroinitializer, align 8
@.str.147 = private unnamed_addr constant [9 x i8] c"%s %s %s\00", align 1
@.str.159 = private unnamed_addr constant [19 x i8] c"__sentinel__:hello\00", align 1
@.str.202 = private unnamed_addr constant [28 x i8] c"%s,%d,%s,%llu,%s,%s,%d,%llu\00", align 1
@.str.203 = private unnamed_addr constant [8 x i8] c"PUBLISH\00", align 1

; Function Attrs: nounwind uwtable
define dso_local ptr @sentinelInstanceMapCommand(ptr noundef %0, ptr noundef %1) #0 {
  %3 = alloca ptr, align 8
  %4 = alloca ptr, align 8
  %5 = alloca ptr, align 8
  %6 = alloca ptr, align 8
  store ptr %0, ptr %3, align 8, !tbaa !11
  store ptr %1, ptr %4, align 8, !tbaa !93
  call void @llvm.lifetime.start.p0(i64 8, ptr %5) #16
  %7 = load ptr, ptr %4, align 8, !tbaa !93
  %8 = call ptr @sdsnew(ptr noundef %7)
  store ptr %8, ptr %5, align 8, !tbaa !93
  %9 = load ptr, ptr %3, align 8, !tbaa !11
  %10 = getelementptr inbounds nuw %struct.sentinelRedisInstance, ptr %9, i32 0, i32 29
  %11 = load ptr, ptr %10, align 8, !tbaa !35
  %12 = icmp ne ptr %11, null
  br i1 %12, label %13, label %17

13:                                               ; preds = %2
  %14 = load ptr, ptr %3, align 8, !tbaa !11
  %15 = getelementptr inbounds nuw %struct.sentinelRedisInstance, ptr %14, i32 0, i32 29
  %16 = load ptr, ptr %15, align 8, !tbaa !35
  store ptr %16, ptr %3, align 8, !tbaa !11
  br label %17

17:                                               ; preds = %13, %2
  call void @llvm.lifetime.start.p0(i64 8, ptr %6) #16
  %18 = load ptr, ptr %3, align 8, !tbaa !11
  %19 = getelementptr inbounds nuw %struct.sentinelRedisInstance, ptr %18, i32 0, i32 15
  %20 = load ptr, ptr %19, align 8, !tbaa !33
  %21 = load ptr, ptr %5, align 8, !tbaa !93
  %22 = call ptr @dictFetchValue(ptr noundef %20, ptr noundef %21)
  store ptr %22, ptr %6, align 8, !tbaa !93
  %23 = load ptr, ptr %5, align 8, !tbaa !93
  call void @sdsfree(ptr noundef %23)
  %24 = load ptr, ptr %6, align 8, !tbaa !93
  %25 = icmp ne ptr %24, null
  br i1 %25, label %26, label %28

26:                                               ; preds = %17
  %27 = load ptr, ptr %6, align 8, !tbaa !93
  br label %30

28:                                               ; preds = %17
  %29 = load ptr, ptr %4, align 8, !tbaa !93
  br label %30

30:                                               ; preds = %28, %26
  %31 = phi ptr [ %27, %26 ], [ %29, %28 ]
  call void @llvm.lifetime.end.p0(i64 8, ptr %6) #16
  call void @llvm.lifetime.end.p0(i64 8, ptr %5) #16
  ret ptr %31
}

; Function Attrs: nounwind uwtable
define dso_local ptr @announceSentinelAddr(ptr noundef %0) #0 {
  %2 = alloca ptr, align 8
  store ptr %0, ptr %2, align 8, !tbaa !94
  %3 = load i32, ptr getelementptr inbounds nuw (%struct.sentinelState, ptr @sentinel, i32 0, i32 15), align 4, !tbaa !78
  %4 = icmp ne i32 %3, 0
  br i1 %4, label %5, label %9

5:                                                ; preds = %1
  %6 = load ptr, ptr %2, align 8, !tbaa !94
  %7 = getelementptr inbounds nuw %struct.sentinelAddr, ptr %6, i32 0, i32 0
  %8 = load ptr, ptr %7, align 8, !tbaa !95
  br label %13

9:                                                ; preds = %1
  %10 = load ptr, ptr %2, align 8, !tbaa !94
  %11 = getelementptr inbounds nuw %struct.sentinelAddr, ptr %10, i32 0, i32 1
  %12 = load ptr, ptr %11, align 8, !tbaa !97
  br label %13

13:                                               ; preds = %9, %5
  %14 = phi ptr [ %8, %5 ], [ %12, %9 ]
  ret ptr %14
}

; Function Attrs: nounwind uwtable
define dso_local ptr @sentinelGetCurrentMasterAddress(ptr noundef %0) #0 {
  %2 = alloca ptr, align 8
  %3 = alloca ptr, align 8
  store ptr %0, ptr %3, align 8, !tbaa !11
  %4 = load ptr, ptr %3, align 8, !tbaa !11
  %5 = getelementptr inbounds nuw %struct.sentinelRedisInstance, ptr %4, i32 0, i32 0
  %6 = load i32, ptr %5, align 8, !tbaa !34
  %7 = and i32 %6, 64
  %8 = icmp ne i32 %7, 0
  br i1 %8, label %9, label %25

9:                                                ; preds = %1
  %10 = load ptr, ptr %3, align 8, !tbaa !11
  %11 = getelementptr inbounds nuw %struct.sentinelRedisInstance, ptr %10, i32 0, i32 42
  %12 = load ptr, ptr %11, align 8, !tbaa !36
  %13 = icmp ne ptr %12, null
  br i1 %13, label %14, label %25

14:                                               ; preds = %9
  %15 = load ptr, ptr %3, align 8, !tbaa !11
  %16 = getelementptr inbounds nuw %struct.sentinelRedisInstance, ptr %15, i32 0, i32 37
  %17 = load i32, ptr %16, align 8, !tbaa !193
  %18 = icmp sge i32 %17, 5
  br i1 %18, label %19, label %25

19:                                               ; preds = %14
  %20 = load ptr, ptr %3, align 8, !tbaa !11
  %21 = getelementptr inbounds nuw %struct.sentinelRedisInstance, ptr %20, i32 0, i32 42
  %22 = load ptr, ptr %21, align 8, !tbaa !36
  %23 = getelementptr inbounds nuw %struct.sentinelRedisInstance, ptr %22, i32 0, i32 4
  %24 = load ptr, ptr %23, align 8, !tbaa !32
  store ptr %24, ptr %2, align 8
  br label %29

25:                                               ; preds = %14, %9, %1
  %26 = load ptr, ptr %3, align 8, !tbaa !11
  %27 = getelementptr inbounds nuw %struct.sentinelRedisInstance, ptr %26, i32 0, i32 4
  %28 = load ptr, ptr %27, align 8, !tbaa !32
  store ptr %28, ptr %2, align 8
  br label %29

29:                                               ; preds = %25, %19
  %30 = load ptr, ptr %2, align 8
  ret ptr %30
}

; Function Attrs: nounwind uwtable
define dso_local i32 @sentinelSendHello(ptr noundef %0) #0 {
  %2 = alloca i32, align 4
  %3 = alloca ptr, align 8
  %4 = alloca [46 x i8], align 16
  %5 = alloca [1070 x i8], align 16
  %6 = alloca i32, align 4
  %7 = alloca ptr, align 8
  %8 = alloca i32, align 4
  %9 = alloca ptr, align 8
  %10 = alloca ptr, align 8
  %11 = alloca i32, align 4
  store ptr %0, ptr %3, align 8, !tbaa !11
  call void @llvm.lifetime.start.p0(i64 46, ptr %4) #16
  call void @llvm.lifetime.start.p0(i64 1070, ptr %5) #16
  call void @llvm.lifetime.start.p0(i64 4, ptr %6) #16
  call void @llvm.lifetime.start.p0(i64 8, ptr %7) #16
  call void @llvm.lifetime.start.p0(i64 4, ptr %8) #16
  call void @llvm.lifetime.start.p0(i64 8, ptr %9) #16
  %12 = load ptr, ptr %3, align 8, !tbaa !11
  %13 = getelementptr inbounds nuw %struct.sentinelRedisInstance, ptr %12, i32 0, i32 0
  %14 = load i32, ptr %13, align 8, !tbaa !34
  %15 = and i32 %14, 1
  %16 = icmp ne i32 %15, 0
  br i1 %16, label %17, label %19

17:                                               ; preds = %1
  %18 = load ptr, ptr %3, align 8, !tbaa !11
  br label %23

19:                                               ; preds = %1
  %20 = load ptr, ptr %3, align 8, !tbaa !11
  %21 = getelementptr inbounds nuw %struct.sentinelRedisInstance, ptr %20, i32 0, i32 29
  %22 = load ptr, ptr %21, align 8, !tbaa !35
  br label %23

23:                                               ; preds = %19, %17
  %24 = phi ptr [ %18, %17 ], [ %22, %19 ]
  store ptr %24, ptr %9, align 8, !tbaa !11
  call void @llvm.lifetime.start.p0(i64 8, ptr %10) #16
  %25 = load ptr, ptr %9, align 8, !tbaa !11
  %26 = call ptr @sentinelGetCurrentMasterAddress(ptr noundef %25)
  store ptr %26, ptr %10, align 8, !tbaa !94
  %27 = load ptr, ptr %3, align 8, !tbaa !11
  %28 = getelementptr inbounds nuw %struct.sentinelRedisInstance, ptr %27, i32 0, i32 5
  %29 = load ptr, ptr %28, align 8, !tbaa !22
  %30 = getelementptr inbounds nuw %struct.instanceLink, ptr %29, i32 0, i32 1
  %31 = load i32, ptr %30, align 4, !tbaa !133
  %32 = icmp ne i32 %31, 0
  br i1 %32, label %33, label %34

33:                                               ; preds = %23
  store i32 -1, ptr %2, align 4
  store i32 1, ptr %11, align 4
  br label %107

34:                                               ; preds = %23
  %35 = load ptr, ptr getelementptr inbounds nuw (%struct.sentinelState, ptr @sentinel, i32 0, i32 8), align 8, !tbaa !71
  %36 = icmp ne ptr %35, null
  br i1 %36, label %37, label %39

37:                                               ; preds = %34
  %38 = load ptr, ptr getelementptr inbounds nuw (%struct.sentinelState, ptr @sentinel, i32 0, i32 8), align 8, !tbaa !71
  store ptr %38, ptr %7, align 8, !tbaa !93
  br label %54

39:                                               ; preds = %34
  %40 = load ptr, ptr %3, align 8, !tbaa !11
  %41 = getelementptr inbounds nuw %struct.sentinelRedisInstance, ptr %40, i32 0, i32 5
  %42 = load ptr, ptr %41, align 8, !tbaa !22
  %43 = getelementptr inbounds nuw %struct.instanceLink, ptr %42, i32 0, i32 3
  %44 = load ptr, ptr %43, align 8, !tbaa !135
  %45 = getelementptr inbounds nuw %struct.redisAsyncContext, ptr %44, i32 0, i32 0
  %46 = getelementptr inbounds nuw %struct.redisContext, ptr %45, i32 0, i32 3
  %47 = load i32, ptr %46, align 4, !tbaa !240
  %48 = getelementptr inbounds [46 x i8], ptr %4, i64 0, i64 0
  %49 = call i32 @anetFdToString(i32 noundef %47, ptr noundef %48, i64 noundef 46, ptr noundef null, i32 noundef 0)
  %50 = icmp eq i32 %49, -1
  br i1 %50, label %51, label %52

51:                                               ; preds = %39
  store i32 -1, ptr %2, align 4
  store i32 1, ptr %11, align 4
  br label %107

52:                                               ; preds = %39
  %53 = getelementptr inbounds [46 x i8], ptr %4, i64 0, i64 0
  store ptr %53, ptr %7, align 8, !tbaa !93
  br label %54

54:                                               ; preds = %52, %37
  %55 = load i32, ptr getelementptr inbounds nuw (%struct.sentinelState, ptr @sentinel, i32 0, i32 9), align 8, !tbaa !72
  %56 = icmp ne i32 %55, 0
  br i1 %56, label %57, label %59

57:                                               ; preds = %54
  %58 = load i32, ptr getelementptr inbounds nuw (%struct.sentinelState, ptr @sentinel, i32 0, i32 9), align 8, !tbaa !72
  store i32 %58, ptr %8, align 4, !tbaa !82
  br label %70

59:                                               ; preds = %54
  %60 = load i32, ptr getelementptr inbounds nuw (%struct.redisServer, ptr @server, i32 0, i32 422), align 4, !tbaa !241
  %61 = icmp ne i32 %60, 0
  br i1 %61, label %62, label %67

62:                                               ; preds = %59
  %63 = load i32, ptr getelementptr inbounds nuw (%struct.redisServer, ptr @server, i32 0, i32 47), align 8, !tbaa !277
  %64 = icmp ne i32 %63, 0
  br i1 %64, label %65, label %67

65:                                               ; preds = %62
  %66 = load i32, ptr getelementptr inbounds nuw (%struct.redisServer, ptr @server, i32 0, i32 47), align 8, !tbaa !277
  store i32 %66, ptr %8, align 4, !tbaa !82
  br label %69

67:                                               ; preds = %62, %59
  %68 = load i32, ptr getelementptr inbounds nuw (%struct.redisServer, ptr @server, i32 0, i32 46), align 4, !tbaa !37
  store i32 %68, ptr %8, align 4, !tbaa !82
  br label %69

69:                                               ; preds = %67, %65
  br label %70

70:                                               ; preds = %69, %57
  %71 = getelementptr inbounds [1070 x i8], ptr %5, i64 0, i64 0
  %72 = load ptr, ptr %7, align 8, !tbaa !93
  %73 = load i32, ptr %8, align 4, !tbaa !82
  %74 = load i64, ptr getelementptr inbounds nuw (%struct.sentinelState, ptr @sentinel, i32 0, i32 1), align 8, !tbaa !63
  %75 = load ptr, ptr %9, align 8, !tbaa !11
  %76 = getelementptr inbounds nuw %struct.sentinelRedisInstance, ptr %75, i32 0, i32 1
  %77 = load ptr, ptr %76, align 8, !tbaa !23
  %78 = load ptr, ptr %10, align 8, !tbaa !94
  %79 = call ptr @announceSentinelAddr(ptr noundef %78)
  %80 = load ptr, ptr %10, align 8, !tbaa !94
  %81 = getelementptr inbounds nuw %struct.sentinelAddr, ptr %80, i32 0, i32 2
  %82 = load i32, ptr %81, align 8, !tbaa !98
  %83 = load ptr, ptr %9, align 8, !tbaa !11
  %84 = getelementptr inbounds nuw %struct.sentinelRedisInstance, ptr %83, i32 0, i32 3
  %85 = load i64, ptr %84, align 8, !tbaa !174
  %86 = call i32 (ptr, i64, ptr, ...) @snprintf(ptr noundef %71, i64 noundef 1070, ptr noundef @.str.202, ptr noundef %72, i32 noundef %73, ptr noundef @sentinel, i64 noundef %74, ptr noundef %77, ptr noundef %79, i32 noundef %82, i64 noundef %85) #16
  %87 = load ptr, ptr %3, align 8, !tbaa !11
  %88 = getelementptr inbounds nuw %struct.sentinelRedisInstance, ptr %87, i32 0, i32 5
  %89 = load ptr, ptr %88, align 8, !tbaa !22
  %90 = getelementptr inbounds nuw %struct.instanceLink, ptr %89, i32 0, i32 3
  %91 = load ptr, ptr %90, align 8, !tbaa !135
  %92 = load ptr, ptr %3, align 8, !tbaa !11
  %93 = load ptr, ptr %3, align 8, !tbaa !11
  %94 = call ptr @sentinelInstanceMapCommand(ptr noundef %93, ptr noundef @.str.203)
  %95 = getelementptr inbounds [1070 x i8], ptr %5, i64 0, i64 0
  %96 = call i32 (ptr, ptr, ptr, ptr, ...) @redisAsyncCommand(ptr noundef %91, ptr noundef @sentinelPublishReplyCallback, ptr noundef %92, ptr noundef @.str.147, ptr noundef %94, ptr noundef @.str.159, ptr noundef %95)
  store i32 %96, ptr %6, align 4, !tbaa !82
  %97 = load i32, ptr %6, align 4, !tbaa !82
  %98 = icmp ne i32 %97, 0
  br i1 %98, label %99, label %100

99:                                               ; preds = %70
  store i32 -1, ptr %2, align 4
  store i32 1, ptr %11, align 4
  br label %107

100:                                              ; preds = %70
  %101 = load ptr, ptr %3, align 8, !tbaa !11
  %102 = getelementptr inbounds nuw %struct.sentinelRedisInstance, ptr %101, i32 0, i32 5
  %103 = load ptr, ptr %102, align 8, !tbaa !22
  %104 = getelementptr inbounds nuw %struct.instanceLink, ptr %103, i32 0, i32 2
  %105 = load i32, ptr %104, align 8, !tbaa !134
  %106 = add nsw i32 %105, 1
  store i32 %106, ptr %104, align 8, !tbaa !134
  store i32 0, ptr %2, align 4
  store i32 1, ptr %11, align 4
  br label %107

107:                                              ; preds = %100, %99, %51, %33
  call void @llvm.lifetime.end.p0(i64 8, ptr %10) #16
  call void @llvm.lifetime.end.p0(i64 8, ptr %9) #16
  call void @llvm.lifetime.end.p0(i64 4, ptr %8) #16
  call void @llvm.lifetime.end.p0(i64 8, ptr %7) #16
  call void @llvm.lifetime.end.p0(i64 4, ptr %6) #16
  call void @llvm.lifetime.end.p0(i64 1070, ptr %5) #16
  call void @llvm.lifetime.end.p0(i64 46, ptr %4) #16
  %108 = load i32, ptr %2, align 4
  ret i32 %108
}