; Function Attrs: nounwind uwtable
define dso_local range(i32 -1, 1) i32 @sentinelSendHello(ptr noundef %0) local_unnamed_addr #0 {
  %2 = alloca [46 x i8], align 16
  %3 = alloca [1070 x i8], align 16
  call void @llvm.lifetime.start.p0(i64 46, ptr nonnull %2) #30
  call void @llvm.lifetime.start.p0(i64 1070, ptr nonnull %3) #30
  %4 = load i32, ptr %0, align 8, !tbaa !34
  %5 = and i32 %4, 1
  %.not = icmp eq i32 %5, 0
  br i1 %.not, label %6, label %9

6:                                                ; preds = %1
  %7 = getelementptr inbounds nuw i8, ptr %0, i64 216
  %8 = load ptr, ptr %7, align 8, !tbaa !35
  %.pre = load i32, ptr %8, align 8, !tbaa !34
  br label %9

9:                                                ; preds = %1, %6
  %10 = phi i32 [ %.pre, %6 ], [ %4, %1 ]
  %11 = phi ptr [ %8, %6 ], [ %0, %1 ]
  %12 = and i32 %10, 64
  %.not.i = icmp eq i32 %12, 0
  br i1 %.not.i, label %20, label %13

13:                                               ; preds = %9
  %14 = getelementptr inbounds nuw i8, ptr %11, i64 312
  %15 = load ptr, ptr %14, align 8, !tbaa !36
  %.not7.i = icmp eq ptr %15, null
  br i1 %.not7.i, label %20, label %16

16:                                               ; preds = %13
  %17 = getelementptr inbounds nuw i8, ptr %11, i64 272
  %18 = load i32, ptr %17, align 8, !tbaa !169
  %19 = icmp sgt i32 %18, 4
  br i1 %19, label %sentinelGetCurrentMasterAddress.exit, label %20

20:                                               ; preds = %16, %13, %9
  br label %sentinelGetCurrentMasterAddress.exit

sentinelGetCurrentMasterAddress.exit:             ; preds = %16, %20
  %.pn.i = phi ptr [ %11, %20 ], [ %15, %16 ]
  %.0.in.i = getelementptr inbounds nuw i8, ptr %.pn.i, i64 32
  %.0.i = load ptr, ptr %.0.in.i, align 8, !tbaa !29
  %21 = getelementptr inbounds nuw i8, ptr %0, i64 40
  %22 = load ptr, ptr %21, align 8, !tbaa !19
  %23 = getelementptr inbounds nuw i8, ptr %22, i64 4
  %24 = load i32, ptr %23, align 4, !tbaa !117
  %.not23 = icmp eq i32 %24, 0
  br i1 %.not23, label %25, label %69

25:                                               ; preds = %sentinelGetCurrentMasterAddress.exit
  %26 = load ptr, ptr getelementptr inbounds nuw (i8, ptr @sentinel, i64 96), align 8, !tbaa !71
  %.not24 = icmp eq ptr %26, null
  br i1 %.not24, label %27, label %34

27:                                               ; preds = %25
  %28 = getelementptr inbounds nuw i8, ptr %22, i64 16
  %29 = load ptr, ptr %28, align 8, !tbaa !124
  %30 = getelementptr inbounds nuw i8, ptr %29, i64 140
  %31 = load i32, ptr %30, align 4, !tbaa !209
  %32 = call i32 @anetFdToString(i32 noundef %31, ptr noundef nonnull %2, i64 noundef 46, ptr noundef null, i32 noundef 0) #30
  %33 = icmp eq i32 %32, -1
  br i1 %33, label %69, label %34

34:                                               ; preds = %27, %25
  %.018 = phi ptr [ %26, %25 ], [ %2, %27 ]
  %35 = load i32, ptr getelementptr inbounds nuw (i8, ptr @sentinel, i64 104), align 8, !tbaa !72
  %.not25 = icmp eq i32 %35, 0
  br i1 %.not25, label %36, label %42

36:                                               ; preds = %34
  %37 = load i32, ptr getelementptr inbounds nuw (i8, ptr @server, i64 8164), align 4, !tbaa !247
  %38 = icmp ne i32 %37, 0
  %39 = load i32, ptr getelementptr inbounds nuw (i8, ptr @server, i64 320), align 8
  %40 = icmp ne i32 %39, 0
  %or.cond = select i1 %38, i1 %40, i1 false
  %41 = load i32, ptr getelementptr inbounds nuw (i8, ptr @server, i64 316), align 4
  %spec.select = select i1 %or.cond, i32 %39, i32 %41
  br label %42

42:                                               ; preds = %36, %34
  %.019 = phi i32 [ %35, %34 ], [ %spec.select, %36 ]
  %43 = load i64, ptr getelementptr inbounds nuw (i8, ptr @sentinel, i64 48), align 8, !tbaa !63
  %44 = getelementptr inbounds nuw i8, ptr %11, i64 8
  %45 = load ptr, ptr %44, align 8, !tbaa !20
  %46 = load i32, ptr getelementptr inbounds nuw (i8, ptr @sentinel, i64 148), align 4, !tbaa !88
  %.not.i27 = icmp eq i32 %46, 0
  %.in.idx.i = select i1 %.not.i27, i64 8, i64 0
  %.in.i = getelementptr inbounds nuw i8, ptr %.0.i, i64 %.in.idx.i
  %47 = load ptr, ptr %.in.i, align 8, !tbaa !87
  %48 = getelementptr inbounds nuw i8, ptr %.0.i, i64 16
  %49 = load i32, ptr %48, align 8, !tbaa !86
  %50 = getelementptr inbounds nuw i8, ptr %11, i64 24
  %51 = load i64, ptr %50, align 8, !tbaa !196
  %52 = call i32 (ptr, i64, ptr, ...) @snprintf(ptr noundef nonnull dereferenceable(1) %3, i64 noundef 1070, ptr noundef nonnull @.str.202, ptr noundef nonnull %.018, i32 noundef %.019, ptr noundef nonnull @sentinel, i64 noundef %43, ptr noundef %45, ptr noundef %47, i32 noundef %49, i64 noundef %51) #30
  %53 = load ptr, ptr %21, align 8, !tbaa !19
  %54 = getelementptr inbounds nuw i8, ptr %53, i64 16
  %55 = load ptr, ptr %54, align 8, !tbaa !124
  %56 = call ptr @sdsnew(ptr noundef nonnull @.str.203) #30
  %57 = getelementptr inbounds nuw i8, ptr %0, i64 216
  %58 = load ptr, ptr %57, align 8, !tbaa !35
  %.not.i28 = icmp eq ptr %58, null
  %spec.select.i = select i1 %.not.i28, ptr %0, ptr %58
  %59 = getelementptr inbounds nuw i8, ptr %spec.select.i, i64 120
  %60 = load ptr, ptr %59, align 8, !tbaa !33
  %61 = call ptr @dictFetchValue(ptr noundef %60, ptr noundef %56) #30
  call void @sdsfree(ptr noundef %56) #30
  %.not10.i = icmp eq ptr %61, null
  %62 = select i1 %.not10.i, ptr @.str.203, ptr %61
  %63 = call i32 (ptr, ptr, ptr, ptr, ...) @redisAsyncCommand(ptr noundef %55, ptr noundef nonnull @sentinelPublishReplyCallback, ptr noundef nonnull %0, ptr noundef nonnull @.str.147, ptr noundef nonnull %62, ptr noundef nonnull @.str.159, ptr noundef nonnull %3) #30
  %.not26 = icmp eq i32 %63, 0
  br i1 %.not26, label %64, label %69

64:                                               ; preds = %42
  %65 = load ptr, ptr %21, align 8, !tbaa !19
  %66 = getelementptr inbounds nuw i8, ptr %65, i64 8
  %67 = load i32, ptr %66, align 8, !tbaa !118
  %68 = add nsw i32 %67, 1
  store i32 %68, ptr %66, align 8, !tbaa !118
  br label %69

69:                                               ; preds = %42, %27, %sentinelGetCurrentMasterAddress.exit, %64
  %.0 = phi i32 [ 0, %64 ], [ -1, %sentinelGetCurrentMasterAddress.exit ], [ -1, %27 ], [ -1, %42 ]
  call void @llvm.lifetime.end.p0(i64 1070, ptr nonnull %3) #30
  call void @llvm.lifetime.end.p0(i64 46, ptr nonnull %2) #30
  ret i32 %.0
}